target datalayout = "e-m:e-p270:32:32-p271:32:32-p272:64:64-i64:64-i128:128-f80:128-n8:16:32:64-S128"
target triple = "x86_64-pc-linux-gnu"

%"class.duckdb::ColumnReader" = type { ptr, ptr, ptr, i64, i8, ptr, ptr, i64, i64, i64, %"class.duckdb::shared_ptr", %"class.duckdb::ResizeableBuffer", i32, %"class.duckdb::unique_ptr", %"class.duckdb::unique_ptr", %"class.duckdb::DictionaryDecoder", %"class.duckdb::DeltaBinaryPackedDecoder", %"class.duckdb::RLEDecoder", %"class.duckdb::DeltaLengthByteArrayDecoder", %"class.duckdb::DeltaByteArrayDecoder", %"class.duckdb::ByteStreamSplitDecoder", [2 x %"class.duckdb::ResizeableBuffer"] }
%"class.duckdb::shared_ptr" = type { %"class.std::shared_ptr" }
%"class.std::shared_ptr" = type { %"class.std::__shared_ptr" }
%"class.std::__shared_ptr" = type { ptr, %"class.std::__shared_count" }
%"class.std::__shared_count" = type { ptr }
%"class.duckdb::ResizeableBuffer" = type { %"class.duckdb::ByteBuffer", %"class.duckdb::AllocatedData", i64 }
%"class.duckdb::ByteBuffer" = type { ptr, i64 }
%"class.duckdb::AllocatedData" = type { %"class.duckdb::optional_ptr", ptr, i64 }
%"class.duckdb::optional_ptr" = type { ptr }
%"class.duckdb::unique_ptr" = type { %"class.std::unique_ptr" }
%"class.std::unique_ptr" = type { %"struct.std::__uniq_ptr_data" }
%"struct.std::__uniq_ptr_data" = type { %"class.std::__uniq_ptr_impl" }
%"class.std::__uniq_ptr_impl" = type { %"class.std::tuple" }
%"class.std::tuple" = type { %"struct.std::_Tuple_impl" }
%"struct.std::_Tuple_impl" = type { %"struct.std::_Head_base.1" }
%"struct.std::_Head_base.1" = type { ptr }
%"class.duckdb::DictionaryDecoder" = type { ptr, ptr, %"class.duckdb::unique_ptr", %"struct.duckdb::SelectionVector", %"struct.duckdb::SelectionVector", i64, %"class.duckdb::unique_ptr.6", %"class.duckdb::unique_ptr.15", i64, i8, %"class.std::__cxx11::basic_string" }
%"struct.duckdb::SelectionVector" = type { ptr, %"class.duckdb::shared_ptr.2" }
%"class.duckdb::shared_ptr.2" = type { %"class.std::shared_ptr.3" }
%"class.std::shared_ptr.3" = type { %"class.std::__shared_ptr.4" }
%"class.std::__shared_ptr.4" = type { ptr, %"class.std::__shared_count" }
%"class.duckdb::unique_ptr.6" = type { %"class.std::unique_ptr.7" }
%"class.std::unique_ptr.7" = type { %"struct.std::__uniq_ptr_data.8" }
%"struct.std::__uniq_ptr_data.8" = type { %"class.std::__uniq_ptr_impl.9" }
%"class.std::__uniq_ptr_impl.9" = type { %"class.std::tuple.10" }
%"class.std::tuple.10" = type { %"struct.std::_Tuple_impl.11" }
%"struct.std::_Tuple_impl.11" = type { %"struct.std::_Head_base.14" }
%"struct.std::_Head_base.14" = type { ptr }
%"class.duckdb::unique_ptr.15" = type { %"class.std::unique_ptr.16" }
%"class.std::unique_ptr.16" = type { %"struct.std::__uniq_ptr_data.17" }
%"struct.std::__uniq_ptr_data.17" = type { %"class.std::__uniq_ptr_impl.18" }
%"class.std::__uniq_ptr_impl.18" = type { %"class.std::tuple.19" }
%"class.std::tuple.19" = type { %"struct.std::_Tuple_impl.20" }
%"struct.std::_Tuple_impl.20" = type { %"struct.std::_Head_base.23" }
%"struct.std::_Head_base.23" = type { ptr }
%"class.std::__cxx11::basic_string" = type { %"struct.std::__cxx11::basic_string<char>::_Alloc_hider", i64, %union.anon }
%"struct.std::__cxx11::basic_string<char>::_Alloc_hider" = type { ptr }
%union.anon = type { i64, [8 x i8] }
%"class.duckdb::DeltaBinaryPackedDecoder" = type { ptr, ptr, %"class.duckdb::unique_ptr.24" }
%"class.duckdb::unique_ptr.24" = type { %"class.std::unique_ptr.25" }
%"class.std::unique_ptr.25" = type { %"struct.std::__uniq_ptr_data.26" }
%"struct.std::__uniq_ptr_data.26" = type { %"class.std::__uniq_ptr_impl.27" }
%"class.std::__uniq_ptr_impl.27" = type { %"class.std::tuple.28" }
%"class.std::tuple.28" = type { %"struct.std::_Tuple_impl.29" }
%"struct.std::_Tuple_impl.29" = type { %"struct.std::_Head_base.32" }
%"struct.std::_Head_base.32" = type { ptr }
%"class.duckdb::RLEDecoder" = type { ptr, ptr, %"class.duckdb::unique_ptr" }
%"class.duckdb::DeltaLengthByteArrayDecoder" = type { ptr, ptr, i64, i64 }
%"class.duckdb::DeltaByteArrayDecoder" = type { ptr, %"class.duckdb::unique_ptr.6", i64, i64 }
%"class.duckdb::ByteStreamSplitDecoder" = type { ptr, ptr, %"class.duckdb::unique_ptr.33" }
%"class.duckdb::unique_ptr.33" = type { %"class.std::unique_ptr.34" }
%"class.std::unique_ptr.34" = type { %"struct.std::__uniq_ptr_data.35" }
%"struct.std::__uniq_ptr_data.35" = type { %"class.std::__uniq_ptr_impl.36" }
%"class.std::__uniq_ptr_impl.36" = type { %"class.std::tuple.37" }
%"class.std::tuple.37" = type { %"struct.std::_Tuple_impl.38" }
%"struct.std::_Tuple_impl.38" = type { %"struct.std::_Head_base.41" }
%"struct.std::_Head_base.41" = type { ptr }
%"class.duckdb::vector.142" = type { %"class.std::vector.143" }
%"class.std::vector.143" = type { %"struct.std::_Vector_base.144" }
%"struct.std::_Vector_base.144" = type { %"struct.std::_Vector_base<std::__cxx11::basic_string<char>, std::allocator<std::__cxx11::basic_string<char>>>::_Vector_impl" }
%"struct.std::_Vector_base<std::__cxx11::basic_string<char>, std::allocator<std::__cxx11::basic_string<char>>>::_Vector_impl" = type { %"struct.std::_Vector_base<std::__cxx11::basic_string<char>, std::allocator<std::__cxx11::basic_string<char>>>::_Vector_impl_data" }
%"struct.std::_Vector_base<std::__cxx11::basic_string<char>, std::allocator<std::__cxx11::basic_string<char>>>::_Vector_impl_data" = type { ptr, ptr, ptr }
%"class.duckdb_parquet::ColumnChunk" = type <{ %"class.duckdb_apache::thrift::TBase", %"class.std::__cxx11::basic_string", i64, %"class.duckdb_parquet::ColumnMetaData", i64, i32, [4 x i8], i64, i32, [4 x i8], %"class.duckdb_parquet::ColumnCryptoMetaData", %"class.std::__cxx11::basic_string", %"struct.duckdb_parquet::_ColumnChunk__isset", [7 x i8] }>
%"class.duckdb_apache::thrift::TBase" = type { ptr }
%"class.duckdb_parquet::ColumnMetaData" = type <{ %"class.duckdb_apache::thrift::TBase", i32, [4 x i8], %"class.duckdb::vector.166", %"class.duckdb::vector.142", i32, [4 x i8], i64, i64, i64, %"class.duckdb::vector.172", i64, i64, i64, %"class.duckdb_parquet::Statistics", %"class.duckdb::vector.178", i64, i32, [4 x i8], %"class.duckdb_parquet::SizeStatistics", %"struct.duckdb_parquet::_ColumnMetaData__isset", [7 x i8] }>
%"class.duckdb::vector.166" = type { %"class.std::vector.167" }
%"class.std::vector.167" = type { %"struct.std::_Vector_base.168" }
%"struct.std::_Vector_base.168" = type { %"struct.std::_Vector_base<duckdb_parquet::Encoding::type, std::allocator<duckdb_parquet::Encoding::type>>::_Vector_impl" }
%"struct.std::_Vector_base<duckdb_parquet::Encoding::type, std::allocator<duckdb_parquet::Encoding::type>>::_Vector_impl" = type { %"struct.std::_Vector_base<duckdb_parquet::Encoding::type, std::allocator<duckdb_parquet::Encoding::type>>::_Vector_impl_data" }
%"struct.std::_Vector_base<duckdb_parquet::Encoding::type, std::allocator<duckdb_parquet::Encoding::type>>::_Vector_impl_data" = type { ptr, ptr, ptr }
%"class.duckdb::vector.172" = type { %"class.std::vector.173" }
%"class.std::vector.173" = type { %"struct.std::_Vector_base.174" }
%"struct.std::_Vector_base.174" = type { %"struct.std::_Vector_base<duckdb_parquet::KeyValue, std::allocator<duckdb_parquet::KeyValue>>::_Vector_impl" }
%"struct.std::_Vector_base<duckdb_parquet::KeyValue, std::allocator<duckdb_parquet::KeyValue>>::_Vector_impl" = type { %"struct.std::_Vector_base<duckdb_parquet::KeyValue, std::allocator<duckdb_parquet::KeyValue>>::_Vector_impl_data" }
%"struct.std::_Vector_base<duckdb_parquet::KeyValue, std::allocator<duckdb_parquet::KeyValue>>::_Vector_impl_data" = type { ptr, ptr, ptr }
%"class.duckdb_parquet::Statistics" = type <{ %"class.duckdb_apache::thrift::TBase", %"class.std::__cxx11::basic_string", %"class.std::__cxx11::basic_string", i64, i64, %"class.std::__cxx11::basic_string", %"class.std::__cxx11::basic_string", i8, i8, %"struct.duckdb_parquet::_Statistics__isset", [5 x i8] }>
%"struct.duckdb_parquet::_Statistics__isset" = type { i8 }
%"class.duckdb::vector.178" = type { %"class.std::vector.179" }
%"class.std::vector.179" = type { %"struct.std::_Vector_base.180" }
%"struct.std::_Vector_base.180" = type { %"struct.std::_Vector_base<duckdb_parquet::PageEncodingStats, std::allocator<duckdb_parquet::PageEncodingStats>>::_Vector_impl" }
%"struct.std::_Vector_base<duckdb_parquet::PageEncodingStats, std::allocator<duckdb_parquet::PageEncodingStats>>::_Vector_impl" = type { %"struct.std::_Vector_base<duckdb_parquet::PageEncodingStats, std::allocator<duckdb_parquet::PageEncodingStats>>::_Vector_impl_data" }
%"struct.std::_Vector_base<duckdb_parquet::PageEncodingStats, std::allocator<duckdb_parquet::PageEncodingStats>>::_Vector_impl_data" = type { ptr, ptr, ptr }
%"class.duckdb_parquet::SizeStatistics" = type <{ %"class.duckdb_apache::thrift::TBase", i64, %"class.duckdb::vector.184", %"class.duckdb::vector.184", %"struct.duckdb_parquet::_SizeStatistics__isset", [7 x i8] }>
%"class.duckdb::vector.184" = type { %"class.std::vector.185" }
%"class.std::vector.185" = type { %"struct.std::_Vector_base.186" }
%"struct.std::_Vector_base.186" = type { %"struct.std::_Vector_base<long, std::allocator<long>>::_Vector_impl" }
%"struct.std::_Vector_base<long, std::allocator<long>>::_Vector_impl" = type { %"struct.std::_Vector_base<long, std::allocator<long>>::_Vector_impl_data" }
%"struct.std::_Vector_base<long, std::allocator<long>>::_Vector_impl_data" = type { ptr, ptr, ptr }
%"struct.duckdb_parquet::_SizeStatistics__isset" = type { i8 }
%"struct.duckdb_parquet::_ColumnMetaData__isset" = type { i8 }
%"class.duckdb_parquet::ColumnCryptoMetaData" = type <{ %"class.duckdb_apache::thrift::TBase", %"class.duckdb_parquet::EncryptionWithFooterKey", %"class.duckdb_parquet::EncryptionWithColumnKey", %"struct.duckdb_parquet::_ColumnCryptoMetaData__isset", [7 x i8] }>
%"class.duckdb_parquet::EncryptionWithFooterKey" = type { %"class.duckdb_apache::thrift::TBase" }
%"class.duckdb_parquet::EncryptionWithColumnKey" = type <{ %"class.duckdb_apache::thrift::TBase", %"class.duckdb::vector.142", %"class.std::__cxx11::basic_string", %"struct.duckdb_parquet::_EncryptionWithColumnKey__isset", [7 x i8] }>
%"struct.duckdb_parquet::_EncryptionWithColumnKey__isset" = type { i8 }
%"struct.duckdb_parquet::_ColumnCryptoMetaData__isset" = type { i8 }
%"struct.duckdb_parquet::_ColumnChunk__isset" = type { i8 }

; Function Attrs: mustprogress nounwind uwtable
define noundef i64 @_ZN6duckdb12ColumnReader19TotalCompressedSizeEv(ptr noundef nonnull align 8 dereferenceable(544) %0) unnamed_addr #5 align 2 {
  %2 = alloca i64, align 8
  %3 = alloca ptr, align 8
  store ptr %0, ptr %3, align 8, !tbaa !3
  %4 = load ptr, ptr %3, align 8
  %5 = getelementptr inbounds nuw %"class.duckdb::ColumnReader", ptr %4, i32 0, i32 5
  %6 = load ptr, ptr %5, align 8, !tbaa !88
  %7 = icmp ne ptr %6, null
  br i1 %7, label %9, label %8

8:                                                ; preds = %1
  store i64 0, ptr %2, align 8
  br label %15

9:                                                ; preds = %1
  %10 = getelementptr inbounds nuw %"class.duckdb::ColumnReader", ptr %4, i32 0, i32 5
  %11 = load ptr, ptr %10, align 8, !tbaa !88
  %12 = getelementptr inbounds nuw %"class.duckdb_parquet::ColumnChunk", ptr %11, i32 0, i32 3
  %13 = getelementptr inbounds nuw %"class.duckdb_parquet::ColumnMetaData", ptr %12, i32 0, i32 9
  %14 = load i64, ptr %13, align 8, !tbaa !206
  store i64 %14, ptr %2, align 8
  br label %15

15:                                               ; preds = %9, %8
  %16 = load i64, ptr %2, align 8
  ret i64 %16
}