; Function Attrs: mustprogress nofree norecurse nosync nounwind willreturn memory(read, inaccessiblemem: none) uwtable
define noundef i64 @_ZN6duckdb12ColumnReader19TotalCompressedSizeEv(ptr noundef nonnull readonly align 8 captures(none) dereferenceable(544) %0) unnamed_addr #7 align 2 {
  %2 = getelementptr inbounds nuw i8, ptr %0, i64 40
  %3 = load ptr, ptr %2, align 8, !tbaa !87
  %.not = icmp eq ptr %3, null
  br i1 %.not, label %7, label %4

4:                                                ; preds = %1
  %5 = getelementptr inbounds nuw i8, ptr %3, i64 136
  %6 = load i64, ptr %5, align 8, !tbaa !197
  br label %7

7:                                                ; preds = %1, %4
  %.0 = phi i64 [ %6, %4 ], [ 0, %1 ]
  ret i64 %.0
}